; Function Attrs: mustprogress uwtable
define void @_ZN6icu_758numparse4impl12ParsedNumberC2Ev(ptr noundef nonnull align 8 dereferenceable(216) %this) unnamed_addr #0 align 2 personality ptr @__gxx_personality_v0 {
invoke.cont3:
  tail call void @_ZN6icu_756number4impl15DecimalQuantityC1Ev(ptr noundef nonnull align 8 dereferenceable(66) %this)
  %prefix = getelementptr inbounds i8, ptr %this, i64 80
  store ptr getelementptr inbounds ({ [13 x ptr] }, ptr @_ZTVN6icu_7513UnicodeStringE, i64 0, i32 0, i64 2), ptr %prefix, align 8
  %fUnion2.i = getelementptr inbounds i8, ptr %this, i64 88
  store i16 2, ptr %fUnion2.i, align 8
  %suffix = getelementptr inbounds i8, ptr %this, i64 144
  store ptr getelementptr inbounds ({ [13 x ptr] }, ptr @_ZTVN6icu_7513UnicodeStringE, i64 0, i32 0, i64 2), ptr %suffix, align 8
  %fUnion2.i3 = getelementptr inbounds i8, ptr %this, i64 152
  store i16 2, ptr %fUnion2.i3, align 8
  %bogus.i = getelementptr inbounds i8, ptr %this, i64 8
  store i8 1, ptr %bogus.i, align 8
  %charEnd.i = getelementptr inbounds i8, ptr %this, i64 72
  store i32 0, ptr %charEnd.i, align 8
  %flags.i = getelementptr inbounds i8, ptr %this, i64 76
  store i32 0, ptr %flags.i, align 4
  invoke void @_ZN6icu_7513UnicodeString10setToBogusEv(ptr noundef nonnull align 8 dereferenceable(64) %prefix)
          to label %.noexc unwind label %lpad4

.noexc:                                           ; preds = %invoke.cont3
  invoke void @_ZN6icu_7513UnicodeString10setToBogusEv(ptr noundef nonnull align 8 dereferenceable(64) %suffix)
          to label %invoke.cont5 unwind label %lpad4

invoke.cont5:                                     ; preds = %.noexc
  %currencyCode.i = getelementptr inbounds i8, ptr %this, i64 208
  store i16 0, ptr %currencyCode.i, align 8
  ret void

lpad4:                                            ; preds = %.noexc, %invoke.cont3
  %0 = landingpad { ptr, i32 }
          cleanup
  tail call void @_ZN6icu_7513UnicodeStringD1Ev(ptr noundef nonnull align 8 dereferenceable(64) %suffix) #4
  tail call void @_ZN6icu_7513UnicodeStringD1Ev(ptr noundef nonnull align 8 dereferenceable(64) %prefix) #4
  tail call void @_ZN6icu_756number4impl15DecimalQuantityD1Ev(ptr noundef nonnull align 8 dereferenceable(66) %this) #4
  resume { ptr, i32 } %0
}